target datalayout = "e-m:e-p270:32:32-p271:32:32-p272:64:64-i64:64-i128:128-f80:128-n8:16:32:64-S128"
target triple = "x86_64-pc-linux-gnu"

%struct.AVTextFormatContext = type { ptr, ptr, ptr, ptr, ptr, ptr, i32, i32, [12 x i32], [12 x [100 x i32]], [12 x ptr], [12 x %struct.AVBPrint], i32, i32, i32, i32, i32, ptr, i32, ptr, i32 }
%struct.AVBPrint = type { ptr, i32, i32, i32, [1 x i8], [1000 x i8] }
%struct.INIContext = type { ptr, i32 }
%struct.AVTextFormatSection = type { i32, ptr, i32, [12 x i32], ptr, ptr, ptr, ptr, i32, ptr, ptr, ptr, ptr }
%struct.AVTextWriterContext = type { ptr, ptr, ptr, ptr }
%struct.AVTextWriter = type { ptr, i32, ptr, ptr, ptr, ptr, ptr, ptr }

@.str.6 = private unnamed_addr constant [19 x i8] c"# ffprobe output\0A\0A\00", align 1
@.str.7 = private unnamed_addr constant [3 x i8] c"%s\00", align 1
@.str.8 = private unnamed_addr constant [5 x i8] c"%s%s\00", align 1
@.str.9 = private unnamed_addr constant [2 x i8] c".\00", align 1
@.str.10 = private unnamed_addr constant [1 x i8] zeroinitializer, align 1
@.str.11 = private unnamed_addr constant [4 x i8] c".%u\00", align 1
@.str.12 = private unnamed_addr constant [6 x i8] c"[%s]\0A\00", align 1
@.str.13 = private unnamed_addr constant [36 x i8] c"Invalid section access at level %d\0A\00", align 1

; Function Attrs: inlinehint nounwind uwtable
define internal void @writer_w8(ptr noundef %0, i32 noundef %1) #3 {
  %3 = alloca ptr, align 8
  %4 = alloca i32, align 4
  store ptr %0, ptr %3, align 8, !tbaa !4
  store i32 %1, ptr %4, align 4, !tbaa !25
  %5 = load ptr, ptr %3, align 8, !tbaa !4
  %6 = getelementptr inbounds nuw %struct.AVTextFormatContext, ptr %5, i32 0, i32 2
  %7 = load ptr, ptr %6, align 8, !tbaa !39
  %8 = getelementptr inbounds nuw %struct.AVTextWriterContext, ptr %7, i32 0, i32 1
  %9 = load ptr, ptr %8, align 8, !tbaa !40
  %10 = getelementptr inbounds nuw %struct.AVTextWriter, ptr %9, i32 0, i32 5
  %11 = load ptr, ptr %10, align 8, !tbaa !45
  %12 = load ptr, ptr %3, align 8, !tbaa !4
  %13 = getelementptr inbounds nuw %struct.AVTextFormatContext, ptr %12, i32 0, i32 2
  %14 = load ptr, ptr %13, align 8, !tbaa !39
  %15 = load i32, ptr %4, align 4, !tbaa !25
  call void %11(ptr noundef %14, i32 noundef %15)
  ret void
}

; Function Attrs: inlinehint nounwind uwtable
define internal void @writer_put_str(ptr noundef %0, ptr noundef %1) #3 {
  %3 = alloca ptr, align 8
  %4 = alloca ptr, align 8
  store ptr %0, ptr %3, align 8, !tbaa !4
  store ptr %1, ptr %4, align 8, !tbaa !36
  %5 = load ptr, ptr %3, align 8, !tbaa !4
  %6 = getelementptr inbounds nuw %struct.AVTextFormatContext, ptr %5, i32 0, i32 2
  %7 = load ptr, ptr %6, align 8, !tbaa !39
  %8 = getelementptr inbounds nuw %struct.AVTextWriterContext, ptr %7, i32 0, i32 1
  %9 = load ptr, ptr %8, align 8, !tbaa !40
  %10 = getelementptr inbounds nuw %struct.AVTextWriter, ptr %9, i32 0, i32 6
  %11 = load ptr, ptr %10, align 8, !tbaa !43
  %12 = load ptr, ptr %3, align 8, !tbaa !4
  %13 = getelementptr inbounds nuw %struct.AVTextFormatContext, ptr %12, i32 0, i32 2
  %14 = load ptr, ptr %13, align 8, !tbaa !39
  %15 = load ptr, ptr %4, align 8, !tbaa !36
  call void %11(ptr noundef %14, ptr noundef %15)
  ret void
}

; Function Attrs: inlinehint nounwind uwtable
define internal ptr @tf_get_parent_section(ptr noundef %0, i32 noundef %1) #3 {
  %3 = alloca ptr, align 8
  %4 = alloca ptr, align 8
  %5 = alloca i32, align 4
  store ptr %0, ptr %4, align 8, !tbaa !4
  store i32 %1, ptr %5, align 4, !tbaa !25
  %6 = load i32, ptr %5, align 4, !tbaa !25
  %7 = icmp sle i32 %6, 0
  br i1 %7, label %8, label %9

8:                                                ; preds = %2
  store ptr null, ptr %3, align 8
  br label %14

9:                                                ; preds = %2
  %10 = load ptr, ptr %4, align 8, !tbaa !4
  %11 = load i32, ptr %5, align 4, !tbaa !25
  %12 = sub nsw i32 %11, 1
  %13 = call ptr @tf_get_section(ptr noundef %10, i32 noundef %12)
  store ptr %13, ptr %3, align 8
  br label %14

14:                                               ; preds = %9, %8
  %15 = load ptr, ptr %3, align 8
  ret ptr %15
}

; Function Attrs: inlinehint nounwind uwtable
define internal ptr @tf_get_section(ptr noundef %0, i32 noundef %1) #3 {
  %3 = alloca ptr, align 8
  %4 = alloca ptr, align 8
  %5 = alloca i32, align 4
  store ptr %0, ptr %4, align 8, !tbaa !4
  store i32 %1, ptr %5, align 4, !tbaa !25
  %6 = load ptr, ptr %4, align 8, !tbaa !4
  %7 = icmp ne ptr %6, null
  br i1 %7, label %8, label %22

8:                                                ; preds = %2
  %9 = load i32, ptr %5, align 4, !tbaa !25
  %10 = icmp slt i32 %9, 0
  br i1 %10, label %22, label %11

11:                                               ; preds = %8
  %12 = load i32, ptr %5, align 4, !tbaa !25
  %13 = icmp sge i32 %12, 12
  br i1 %13, label %22, label %14

14:                                               ; preds = %11
  %15 = load ptr, ptr %4, align 8, !tbaa !4
  %16 = getelementptr inbounds nuw %struct.AVTextFormatContext, ptr %15, i32 0, i32 10
  %17 = load i32, ptr %5, align 4, !tbaa !25
  %18 = sext i32 %17 to i64
  %19 = getelementptr inbounds [12 x ptr], ptr %16, i64 0, i64 %18
  %20 = load ptr, ptr %19, align 8, !tbaa !24
  %21 = icmp ne ptr %20, null
  br i1 %21, label %29, label %22

22:                                               ; preds = %14, %11, %8, %2
  %23 = load ptr, ptr %4, align 8, !tbaa !4
  %24 = icmp ne ptr %23, null
  br i1 %24, label %25, label %28

25:                                               ; preds = %22
  %26 = load ptr, ptr %4, align 8, !tbaa !4
  %27 = load i32, ptr %5, align 4, !tbaa !25
  call void (ptr, i32, ptr, ...) @av_log(ptr noundef %26, i32 noundef 16, ptr noundef @.str.13, i32 noundef %27)
  br label %28

28:                                               ; preds = %25, %22
  store ptr null, ptr %3, align 8
  br label %36

29:                                               ; preds = %14
  %30 = load ptr, ptr %4, align 8, !tbaa !4
  %31 = getelementptr inbounds nuw %struct.AVTextFormatContext, ptr %30, i32 0, i32 10
  %32 = load i32, ptr %5, align 4, !tbaa !25
  %33 = sext i32 %32 to i64
  %34 = getelementptr inbounds [12 x ptr], ptr %31, i64 0, i64 %33
  %35 = load ptr, ptr %34, align 8, !tbaa !24
  store ptr %35, ptr %3, align 8
  br label %36

36:                                               ; preds = %29, %28
  %37 = load ptr, ptr %3, align 8
  ret ptr %37
}

; Function Attrs: nounwind uwtable
define internal void @ini_print_section_header(ptr noundef %0, ptr noundef %1) #0 {
  %3 = alloca ptr, align 8
  %4 = alloca ptr, align 8
  %5 = alloca ptr, align 8
  %6 = alloca ptr, align 8
  %7 = alloca ptr, align 8
  %8 = alloca ptr, align 8
  %9 = alloca i32, align 4
  %10 = alloca i32, align 4
  store ptr %0, ptr %3, align 8, !tbaa !4
  store ptr %1, ptr %4, align 8, !tbaa !9
  call void @llvm.lifetime.start.p0(i64 8, ptr %5) #5
  %11 = load ptr, ptr %3, align 8, !tbaa !4
  %12 = getelementptr inbounds nuw %struct.AVTextFormatContext, ptr %11, i32 0, i32 4
  %13 = load ptr, ptr %12, align 8, !tbaa !10
  store ptr %13, ptr %5, align 8, !tbaa !19
  call void @llvm.lifetime.start.p0(i64 8, ptr %6) #5
  %14 = load ptr, ptr %3, align 8, !tbaa !4
  %15 = getelementptr inbounds nuw %struct.AVTextFormatContext, ptr %14, i32 0, i32 11
  %16 = load ptr, ptr %3, align 8, !tbaa !4
  %17 = getelementptr inbounds nuw %struct.AVTextFormatContext, ptr %16, i32 0, i32 7
  %18 = load i32, ptr %17, align 4, !tbaa !21
  %19 = sext i32 %18 to i64
  %20 = getelementptr inbounds [12 x %struct.AVBPrint], ptr %15, i64 0, i64 %19
  store ptr %20, ptr %6, align 8, !tbaa !22
  call void @llvm.lifetime.start.p0(i64 8, ptr %7) #5
  %21 = load ptr, ptr %3, align 8, !tbaa !4
  %22 = load ptr, ptr %3, align 8, !tbaa !4
  %23 = getelementptr inbounds nuw %struct.AVTextFormatContext, ptr %22, i32 0, i32 7
  %24 = load i32, ptr %23, align 4, !tbaa !21
  %25 = call ptr @tf_get_section(ptr noundef %21, i32 noundef %24)
  store ptr %25, ptr %7, align 8, !tbaa !24
  call void @llvm.lifetime.start.p0(i64 8, ptr %8) #5
  %26 = load ptr, ptr %3, align 8, !tbaa !4
  %27 = load ptr, ptr %3, align 8, !tbaa !4
  %28 = getelementptr inbounds nuw %struct.AVTextFormatContext, ptr %27, i32 0, i32 7
  %29 = load i32, ptr %28, align 4, !tbaa !21
  %30 = call ptr @tf_get_parent_section(ptr noundef %26, i32 noundef %29)
  store ptr %30, ptr %8, align 8, !tbaa !24
  %31 = load ptr, ptr %7, align 8, !tbaa !24
  %32 = icmp ne ptr %31, null
  br i1 %32, label %34, label %33

33:                                               ; preds = %2
  store i32 1, ptr %9, align 4
  br label %148

34:                                               ; preds = %2
  %35 = load ptr, ptr %6, align 8, !tbaa !22
  call void @av_bprint_clear(ptr noundef %35)
  %36 = load ptr, ptr %8, align 8, !tbaa !24
  %37 = icmp ne ptr %36, null
  br i1 %37, label %40, label %38

38:                                               ; preds = %34
  %39 = load ptr, ptr %3, align 8, !tbaa !4
  call void @writer_put_str(ptr noundef %39, ptr noundef @.str.6)
  store i32 1, ptr %9, align 4
  br label %148

40:                                               ; preds = %34
  %41 = load ptr, ptr %3, align 8, !tbaa !4
  %42 = getelementptr inbounds nuw %struct.AVTextFormatContext, ptr %41, i32 0, i32 8
  %43 = load ptr, ptr %3, align 8, !tbaa !4
  %44 = getelementptr inbounds nuw %struct.AVTextFormatContext, ptr %43, i32 0, i32 7
  %45 = load i32, ptr %44, align 4, !tbaa !21
  %46 = sub nsw i32 %45, 1
  %47 = sext i32 %46 to i64
  %48 = getelementptr inbounds [12 x i32], ptr %42, i64 0, i64 %47
  %49 = load i32, ptr %48, align 4, !tbaa !25
  %50 = icmp ne i32 %49, 0
  br i1 %50, label %51, label %53

51:                                               ; preds = %40
  %52 = load ptr, ptr %3, align 8, !tbaa !4
  call void @writer_w8(ptr noundef %52, i32 noundef 10)
  br label %53

53:                                               ; preds = %51, %40
  %54 = load ptr, ptr %6, align 8, !tbaa !22
  %55 = load ptr, ptr %3, align 8, !tbaa !4
  %56 = getelementptr inbounds nuw %struct.AVTextFormatContext, ptr %55, i32 0, i32 11
  %57 = load ptr, ptr %3, align 8, !tbaa !4
  %58 = getelementptr inbounds nuw %struct.AVTextFormatContext, ptr %57, i32 0, i32 7
  %59 = load i32, ptr %58, align 4, !tbaa !21
  %60 = sub nsw i32 %59, 1
  %61 = sext i32 %60 to i64
  %62 = getelementptr inbounds [12 x %struct.AVBPrint], ptr %56, i64 0, i64 %61
  %63 = getelementptr inbounds nuw %struct.AVBPrint, ptr %62, i32 0, i32 0
  %64 = load ptr, ptr %63, align 8, !tbaa !26
  call void (ptr, ptr, ...) @av_bprintf(ptr noundef %54, ptr noundef @.str.7, ptr noundef %64)
  %65 = load ptr, ptr %5, align 8, !tbaa !19
  %66 = getelementptr inbounds nuw %struct.INIContext, ptr %65, i32 0, i32 1
  %67 = load i32, ptr %66, align 8, !tbaa !28
  %68 = icmp ne i32 %67, 0
  br i1 %68, label %75, label %69

69:                                               ; preds = %53
  %70 = load ptr, ptr %7, align 8, !tbaa !24
  %71 = getelementptr inbounds nuw %struct.AVTextFormatSection, ptr %70, i32 0, i32 2
  %72 = load i32, ptr %71, align 8, !tbaa !30
  %73 = and i32 %72, 3
  %74 = icmp ne i32 %73, 0
  br i1 %74, label %136, label %75

75:                                               ; preds = %69, %53
  %76 = load ptr, ptr %6, align 8, !tbaa !22
  %77 = load ptr, ptr %6, align 8, !tbaa !22
  %78 = getelementptr inbounds nuw %struct.AVBPrint, ptr %77, i32 0, i32 0
  %79 = load ptr, ptr %78, align 8, !tbaa !26
  %80 = getelementptr inbounds i8, ptr %79, i64 0
  %81 = load i8, ptr %80, align 1, !tbaa !33
  %82 = sext i8 %81 to i32
  %83 = icmp ne i32 %82, 0
  %84 = select i1 %83, ptr @.str.9, ptr @.str.10
  %85 = load ptr, ptr %3, align 8, !tbaa !4
  %86 = getelementptr inbounds nuw %struct.AVTextFormatContext, ptr %85, i32 0, i32 10
  %87 = load ptr, ptr %3, align 8, !tbaa !4
  %88 = getelementptr inbounds nuw %struct.AVTextFormatContext, ptr %87, i32 0, i32 7
  %89 = load i32, ptr %88, align 4, !tbaa !21
  %90 = sext i32 %89 to i64
  %91 = getelementptr inbounds [12 x ptr], ptr %86, i64 0, i64 %90
  %92 = load ptr, ptr %91, align 8, !tbaa !24
  %93 = getelementptr inbounds nuw %struct.AVTextFormatSection, ptr %92, i32 0, i32 1
  %94 = load ptr, ptr %93, align 8, !tbaa !34
  call void (ptr, ptr, ...) @av_bprintf(ptr noundef %76, ptr noundef @.str.8, ptr noundef %84, ptr noundef %94)
  %95 = load ptr, ptr %8, align 8, !tbaa !24
  %96 = getelementptr inbounds nuw %struct.AVTextFormatSection, ptr %95, i32 0, i32 2
  %97 = load i32, ptr %96, align 8, !tbaa !30
  %98 = and i32 %97, 2
  %99 = icmp ne i32 %98, 0
  br i1 %99, label %100, label %135

100:                                              ; preds = %75
  call void @llvm.lifetime.start.p0(i64 4, ptr %10) #5
  %101 = load ptr, ptr %8, align 8, !tbaa !24
  %102 = getelementptr inbounds nuw %struct.AVTextFormatSection, ptr %101, i32 0, i32 2
  %103 = load i32, ptr %102, align 8, !tbaa !30
  %104 = and i32 %103, 16
  %105 = icmp ne i32 %104, 0
  br i1 %105, label %106, label %121

106:                                              ; preds = %100
  %107 = load ptr, ptr %3, align 8, !tbaa !4
  %108 = getelementptr inbounds nuw %struct.AVTextFormatContext, ptr %107, i32 0, i32 9
  %109 = load ptr, ptr %3, align 8, !tbaa !4
  %110 = getelementptr inbounds nuw %struct.AVTextFormatContext, ptr %109, i32 0, i32 7
  %111 = load i32, ptr %110, align 4, !tbaa !21
  %112 = sub nsw i32 %111, 1
  %113 = sext i32 %112 to i64
  %114 = getelementptr inbounds [12 x [100 x i32]], ptr %108, i64 0, i64 %113
  %115 = load ptr, ptr %7, align 8, !tbaa !24
  %116 = getelementptr inbounds nuw %struct.AVTextFormatSection, ptr %115, i32 0, i32 0
  %117 = load i32, ptr %116, align 8, !tbaa !35
  %118 = sext i32 %117 to i64
  %119 = getelementptr inbounds [100 x i32], ptr %114, i64 0, i64 %118
  %120 = load i32, ptr %119, align 4, !tbaa !25
  br label %131

121:                                              ; preds = %100
  %122 = load ptr, ptr %3, align 8, !tbaa !4
  %123 = getelementptr inbounds nuw %struct.AVTextFormatContext, ptr %122, i32 0, i32 8
  %124 = load ptr, ptr %3, align 8, !tbaa !4
  %125 = getelementptr inbounds nuw %struct.AVTextFormatContext, ptr %124, i32 0, i32 7
  %126 = load i32, ptr %125, align 4, !tbaa !21
  %127 = sub nsw i32 %126, 1
  %128 = sext i32 %127 to i64
  %129 = getelementptr inbounds [12 x i32], ptr %123, i64 0, i64 %128
  %130 = load i32, ptr %129, align 4, !tbaa !25
  br label %131

131:                                              ; preds = %121, %106
  %132 = phi i32 [ %120, %106 ], [ %130, %121 ]
  store i32 %132, ptr %10, align 4, !tbaa !25
  %133 = load ptr, ptr %6, align 8, !tbaa !22
  %134 = load i32, ptr %10, align 4, !tbaa !25
  call void (ptr, ptr, ...) @av_bprintf(ptr noundef %133, ptr noundef @.str.11, i32 noundef %134)
  call void @llvm.lifetime.end.p0(i64 4, ptr %10) #5
  br label %135

135:                                              ; preds = %131, %75
  br label %136

136:                                              ; preds = %135, %69
  %137 = load ptr, ptr %7, align 8, !tbaa !24
  %138 = getelementptr inbounds nuw %struct.AVTextFormatSection, ptr %137, i32 0, i32 2
  %139 = load i32, ptr %138, align 8, !tbaa !30
  %140 = and i32 %139, 3
  %141 = icmp ne i32 %140, 0
  br i1 %141, label %147, label %142

142:                                              ; preds = %136
  %143 = load ptr, ptr %3, align 8, !tbaa !4
  %144 = load ptr, ptr %6, align 8, !tbaa !22
  %145 = getelementptr inbounds nuw %struct.AVBPrint, ptr %144, i32 0, i32 0
  %146 = load ptr, ptr %145, align 8, !tbaa !26
  call void (ptr, ptr, ...) @writer_printf(ptr noundef %143, ptr noundef @.str.12, ptr noundef %146)
  br label %147

147:                                              ; preds = %142, %136
  store i32 0, ptr %9, align 4
  br label %148

148:                                              ; preds = %147, %38, %33
  call void @llvm.lifetime.end.p0(i64 8, ptr %8) #5
  call void @llvm.lifetime.end.p0(i64 8, ptr %7) #5
  call void @llvm.lifetime.end.p0(i64 8, ptr %6) #5
  call void @llvm.lifetime.end.p0(i64 8, ptr %5) #5
  %149 = load i32, ptr %9, align 4
  switch i32 %149, label %151 [
    i32 0, label %150
    i32 1, label %150
  ]

150:                                              ; preds = %148, %148
  ret void

151:                                              ; preds = %148
  unreachable
}