; Function Attrs: nounwind uwtable
define internal void @ini_print_section_header(ptr noundef %0, ptr readnone captures(none) %1) #0 {
  %3 = getelementptr inbounds nuw i8, ptr %0, i64 32
  %4 = load ptr, ptr %3, align 8, !tbaa !4
  %5 = getelementptr inbounds nuw i8, ptr %0, i64 5000
  %6 = getelementptr inbounds nuw i8, ptr %0, i64 52
  %7 = load i32, ptr %6, align 4, !tbaa !16
  %8 = sext i32 %7 to i64
  %9 = getelementptr inbounds [12 x %struct.AVBPrint], ptr %5, i64 0, i64 %8
  %10 = icmp eq ptr %0, null
  %11 = icmp ugt i32 %7, 11
  %or.cond3.i = or i1 %10, %11
  br i1 %or.cond3.i, label %.thread.i, label %12

12:                                               ; preds = %2
  %13 = getelementptr inbounds nuw i8, ptr %0, i64 4904
  %14 = zext nneg i32 %7 to i64
  %15 = getelementptr inbounds nuw [12 x ptr], ptr %13, i64 0, i64 %14
  %16 = load ptr, ptr %15, align 8, !tbaa !17
  %.not.i = icmp eq ptr %16, null
  br i1 %.not.i, label %.thread.i, label %tf_get_section.exit

.thread.i:                                        ; preds = %2, %12
  tail call void (ptr, i32, ptr, ...) @av_log(ptr noundef nonnull %0, i32 noundef 16, ptr noundef nonnull @.str.13, i32 noundef %7) #5
  %.pre = load i32, ptr %6, align 4, !tbaa !16
  br label %tf_get_section.exit

tf_get_section.exit:                              ; preds = %12, %.thread.i
  %17 = phi i32 [ %.pre, %.thread.i ], [ %7, %12 ]
  %.0.i = phi ptr [ null, %.thread.i ], [ %16, %12 ]
  %18 = icmp slt i32 %17, 1
  br i1 %18, label %tf_get_parent_section.exit, label %19

19:                                               ; preds = %tf_get_section.exit
  %20 = add nsw i32 %17, -1
  %21 = icmp samesign ugt i32 %20, 11
  %or.cond3.i.i = or i1 %10, %21
  br i1 %or.cond3.i.i, label %.thread.i.i, label %22

22:                                               ; preds = %19
  %23 = getelementptr inbounds nuw i8, ptr %0, i64 4904
  %24 = zext nneg i32 %20 to i64
  %25 = getelementptr inbounds nuw [12 x ptr], ptr %23, i64 0, i64 %24
  %26 = load ptr, ptr %25, align 8, !tbaa !17
  %.not.i.i = icmp eq ptr %26, null
  br i1 %.not.i.i, label %.thread.i.i, label %tf_get_parent_section.exit

.thread.i.i:                                      ; preds = %19, %22
  tail call void (ptr, i32, ptr, ...) @av_log(ptr noundef nonnull %0, i32 noundef 16, ptr noundef nonnull @.str.13, i32 noundef %20) #5
  br label %tf_get_parent_section.exit

tf_get_parent_section.exit:                       ; preds = %tf_get_section.exit, %22, %.thread.i.i
  %.0.i44 = phi ptr [ null, %tf_get_section.exit ], [ null, %.thread.i.i ], [ %26, %22 ]
  %.not = icmp eq ptr %.0.i, null
  br i1 %.not, label %93, label %27

27:                                               ; preds = %tf_get_parent_section.exit
  tail call void @av_bprint_clear(ptr noundef nonnull %9) #5
  %.not35 = icmp eq ptr %.0.i44, null
  br i1 %.not35, label %28, label %34

28:                                               ; preds = %27
  %29 = getelementptr i8, ptr %0, i64 16
  %.val = load ptr, ptr %29, align 8, !tbaa !18
  %30 = getelementptr inbounds nuw i8, ptr %.val, i64 8
  %31 = load ptr, ptr %30, align 8, !tbaa !19
  %32 = getelementptr inbounds nuw i8, ptr %31, i64 48
  %33 = load ptr, ptr %32, align 8, !tbaa !22
  tail call void %33(ptr noundef %.val, ptr noundef nonnull @.str.6) #5
  br label %93

34:                                               ; preds = %27
  %35 = getelementptr inbounds nuw i8, ptr %0, i64 56
  %36 = load i32, ptr %6, align 4, !tbaa !16
  %37 = add nsw i32 %36, -1
  %38 = sext i32 %37 to i64
  %39 = getelementptr inbounds [12 x i32], ptr %35, i64 0, i64 %38
  %40 = load i32, ptr %39, align 4, !tbaa !24
  %.not36 = icmp eq i32 %40, 0
  br i1 %.not36, label %47, label %41

41:                                               ; preds = %34
  %42 = getelementptr i8, ptr %0, i64 16
  %.val43 = load ptr, ptr %42, align 8, !tbaa !18
  %43 = getelementptr inbounds nuw i8, ptr %.val43, i64 8
  %44 = load ptr, ptr %43, align 8, !tbaa !19
  %45 = getelementptr inbounds nuw i8, ptr %44, i64 40
  %46 = load ptr, ptr %45, align 8, !tbaa !25
  tail call void %46(ptr noundef %.val43, i32 noundef 10) #5
  %.pre45 = load i32, ptr %6, align 4, !tbaa !16
  %.pre46 = add nsw i32 %.pre45, -1
  %.pre47 = sext i32 %.pre46 to i64
  br label %47

47:                                               ; preds = %41, %34
  %.pre-phi48 = phi i64 [ %.pre47, %41 ], [ %38, %34 ]
  %48 = getelementptr inbounds [12 x %struct.AVBPrint], ptr %5, i64 0, i64 %.pre-phi48
  %49 = load ptr, ptr %48, align 8, !tbaa !26
  tail call void (ptr, ptr, ...) @av_bprintf(ptr noundef nonnull %9, ptr noundef nonnull @.str.7, ptr noundef %49) #5
  %50 = getelementptr inbounds nuw i8, ptr %4, i64 8
  %51 = load i32, ptr %50, align 8, !tbaa !28
  %.not37 = icmp eq i32 %51, 0
  br i1 %.not37, label %52, label %56

52:                                               ; preds = %47
  %53 = getelementptr inbounds nuw i8, ptr %.0.i, i64 16
  %54 = load i32, ptr %53, align 8, !tbaa !30
  %55 = and i32 %54, 3
  %.not38 = icmp eq i32 %55, 0
  br i1 %.not38, label %56, label %87

56:                                               ; preds = %52, %47
  %57 = load ptr, ptr %9, align 8, !tbaa !26
  %58 = load i8, ptr %57, align 1, !tbaa !33
  %.not39 = icmp eq i8 %58, 0
  %59 = select i1 %.not39, ptr @.str.10, ptr @.str.9
  %60 = getelementptr inbounds nuw i8, ptr %0, i64 4904
  %61 = load i32, ptr %6, align 4, !tbaa !16
  %62 = sext i32 %61 to i64
  %63 = getelementptr inbounds [12 x ptr], ptr %60, i64 0, i64 %62
  %64 = load ptr, ptr %63, align 8, !tbaa !17
  %65 = getelementptr inbounds nuw i8, ptr %64, i64 8
  %66 = load ptr, ptr %65, align 8, !tbaa !34
  tail call void (ptr, ptr, ...) @av_bprintf(ptr noundef nonnull %9, ptr noundef nonnull @.str.8, ptr noundef nonnull %59, ptr noundef %66) #5
  %67 = getelementptr inbounds nuw i8, ptr %.0.i44, i64 16
  %68 = load i32, ptr %67, align 8, !tbaa !30
  %69 = and i32 %68, 2
  %.not40 = icmp eq i32 %69, 0
  br i1 %.not40, label %87, label %70

70:                                               ; preds = %56
  %71 = and i32 %68, 16
  %.not41 = icmp eq i32 %71, 0
  br i1 %.not41, label %80, label %72

72:                                               ; preds = %70
  %73 = getelementptr inbounds nuw i8, ptr %0, i64 104
  %74 = load i32, ptr %6, align 4, !tbaa !16
  %75 = add nsw i32 %74, -1
  %76 = sext i32 %75 to i64
  %77 = load i32, ptr %.0.i, align 8, !tbaa !35
  %78 = sext i32 %77 to i64
  %79 = getelementptr inbounds [12 x [100 x i32]], ptr %73, i64 0, i64 %76, i64 %78
  br label %85

80:                                               ; preds = %70
  %81 = load i32, ptr %6, align 4, !tbaa !16
  %82 = add nsw i32 %81, -1
  %83 = sext i32 %82 to i64
  %84 = getelementptr inbounds [12 x i32], ptr %35, i64 0, i64 %83
  br label %85

85:                                               ; preds = %80, %72
  %.in = phi ptr [ %79, %72 ], [ %84, %80 ]
  %86 = load i32, ptr %.in, align 4, !tbaa !24
  tail call void (ptr, ptr, ...) @av_bprintf(ptr noundef nonnull %9, ptr noundef nonnull @.str.11, i32 noundef %86) #5
  br label %87

87:                                               ; preds = %56, %85, %52
  %88 = getelementptr inbounds nuw i8, ptr %.0.i, i64 16
  %89 = load i32, ptr %88, align 8, !tbaa !30
  %90 = and i32 %89, 3
  %.not42 = icmp eq i32 %90, 0
  br i1 %.not42, label %91, label %93

91:                                               ; preds = %87
  %92 = load ptr, ptr %9, align 8, !tbaa !26
  tail call void (ptr, ptr, ...) @writer_printf(ptr noundef nonnull %0, ptr noundef nonnull @.str.12, ptr noundef %92)
  br label %93

93:                                               ; preds = %87, %91, %tf_get_parent_section.exit, %28
  ret void
}